; ModuleID = 'source-C-CXX/60/1424.cpp'
source_filename = "source-C-CXX/60/1424.cpp"
target datalayout = "e-m:e-p270:32:32-p271:32:32-p272:64:64-i64:64-f80:128-n8:16:32:64-S128"
target triple = "x86_64-pc-linux-gnu"

%"class.std::ios_base::Init" = type { i8 }
%"class.std::basic_istream" = type { i32 (...)**, i64, %"class.std::basic_ios" }
%"class.std::basic_ios" = type { %"class.std::ios_base", %"class.std::basic_ostream"*, i8, i8, %"class.std::basic_streambuf"*, %"class.std::ctype"*, %"class.std::num_put"*, %"class.std::num_get"* }
%"class.std::ios_base" = type { i32 (...)**, i64, i64, i32, i32, i32, %"struct.std::ios_base::_Callback_list"*, %"struct.std::ios_base::_Words", [8 x %"struct.std::ios_base::_Words"], i32, %"struct.std::ios_base::_Words"*, %"class.std::locale" }
%"struct.std::ios_base::_Callback_list" = type { %"struct.std::ios_base::_Callback_list"*, void (i32, %"class.std::ios_base"*, i32)*, i32, i32 }
%"struct.std::ios_base::_Words" = type { i8*, i64 }
%"class.std::locale" = type { %"class.std::locale::_Impl"* }
%"class.std::locale::_Impl" = type { i32, %"class.std::locale::facet"**, i64, %"class.std::locale::facet"**, i8** }
%"class.std::locale::facet" = type <{ i32 (...)**, i32, [4 x i8] }>
%"class.std::basic_ostream" = type { i32 (...)**, %"class.std::basic_ios" }
%"class.std::basic_streambuf" = type { i32 (...)**, i8*, i8*, i8*, i8*, i8*, i8*, %"class.std::locale" }
%"class.std::ctype" = type <{ %"class.std::locale::facet.base", [4 x i8], %struct.__locale_struct*, i8, [7 x i8], i32*, i32*, i16*, i8, [256 x i8], [256 x i8], i8, [6 x i8] }>
%"class.std::locale::facet.base" = type <{ i32 (...)**, i32 }>
%struct.__locale_struct = type { [13 x %struct.__locale_data*], i16*, i32*, i32*, [13 x i8*] }
%struct.__locale_data = type opaque
%"class.std::num_put" = type { %"class.std::locale::facet.base", [4 x i8] }
%"class.std::num_get" = type { %"class.std::locale::facet.base", [4 x i8] }

@_ZStL8__ioinit = internal global %"class.std::ios_base::Init" zeroinitializer, align 1
@__dso_handle = external hidden global i8
@_ZSt3cin = external global %"class.std::basic_istream", align 8
@_ZSt4cout = external global %"class.std::basic_ostream", align 8
@llvm.global_ctors = appending global [1 x { i32, void ()*, i8* }] [{ i32, void ()*, i8* } { i32 65535, void ()* @_GLOBAL__sub_I_1424.cpp, i8* null }]

declare void @_ZNSt8ios_base4InitC1Ev(%"class.std::ios_base::Init"* nonnull align 1 dereferenceable(1)) unnamed_addr #0

; Function Attrs: nounwind
declare void @_ZNSt8ios_base4InitD1Ev(%"class.std::ios_base::Init"* nonnull align 1 dereferenceable(1)) unnamed_addr #1

; Function Attrs: nofree nounwind
declare i32 @__cxa_atexit(void (i8*)*, i8*, i8*) local_unnamed_addr #2

; Function Attrs: mustprogress norecurse sspstrong uwtable
define dso_local i32 @main() local_unnamed_addr #3 {
  %1 = alloca i32, align 4
  %2 = alloca i32, align 4
  %3 = alloca [25 x i32], align 16
  %4 = bitcast i32* %1 to i8*
  call void @llvm.lifetime.start.p0i8(i64 4, i8* nonnull %4) #7
  %5 = bitcast i32* %2 to i8*
  call void @llvm.lifetime.start.p0i8(i64 4, i8* nonnull %5) #7
  %6 = bitcast [25 x i32]* %3 to i8*
  call void @llvm.lifetime.start.p0i8(i64 100, i8* nonnull %6) #7
  %7 = getelementptr inbounds [25 x i32], [25 x i32]* %3, i64 0, i64 1
  store i32 1, i32* %7, align 4, !tbaa !5
  %8 = getelementptr inbounds [25 x i32], [25 x i32]* %3, i64 0, i64 2
  store i32 1, i32* %8, align 8, !tbaa !5
  %9 = call nonnull align 8 dereferenceable(16) %"class.std::basic_istream"* @_ZNSirsERi(%"class.std::basic_istream"* nonnull align 8 dereferenceable(16) @_ZSt3cin, i32* nonnull align 4 dereferenceable(4) %2)
  %10 = load i32, i32* %2, align 4, !tbaa !5
  %11 = icmp slt i32 %10, 1
  br i1 %11, label %146, label %12

12:                                               ; preds = %0, %140
  %13 = phi i32 [ %143, %140 ], [ 1, %0 ]
  %14 = call nonnull align 8 dereferenceable(16) %"class.std::basic_istream"* @_ZNSirsERi(%"class.std::basic_istream"* nonnull align 8 dereferenceable(16) @_ZSt3cin, i32* nonnull align 4 dereferenceable(4) %1)
  %15 = load i32, i32* %1, align 4, !tbaa !5
  %16 = add i32 %15, -1
  %17 = icmp ult i32 %16, 2
  br i1 %17, label %30, label %18

18:                                               ; preds = %12
  %19 = icmp slt i32 %15, 3
  br i1 %19, label %107, label %20

20:                                               ; preds = %18
  %21 = add nuw i32 %15, 1
  %22 = zext i32 %21 to i64
  %23 = load i32, i32* %8, align 8, !tbaa !5
  %24 = add nsw i64 %22, -3
  %25 = add nsw i64 %22, -4
  %26 = and i64 %24, 3
  %27 = icmp ult i64 %25, 3
  br i1 %27, label %91, label %28

28:                                               ; preds = %20
  %29 = and i64 %24, -4
  br label %63

30:                                               ; preds = %12
  %31 = zext i32 %15 to i64
  %32 = getelementptr inbounds [25 x i32], [25 x i32]* %3, i64 0, i64 %31
  %33 = load i32, i32* %32, align 4, !tbaa !5
  %34 = call nonnull align 8 dereferenceable(8) %"class.std::basic_ostream"* @_ZNSolsEi(%"class.std::basic_ostream"* nonnull align 8 dereferenceable(8) @_ZSt4cout, i32 %33)
  %35 = bitcast %"class.std::basic_ostream"* %34 to i8**
  %36 = load i8*, i8** %35, align 8, !tbaa !9
  %37 = getelementptr i8, i8* %36, i64 -24
  %38 = bitcast i8* %37 to i64*
  %39 = load i64, i64* %38, align 8
  %40 = bitcast %"class.std::basic_ostream"* %34 to i8*
  %41 = add nsw i64 %39, 240
  %42 = getelementptr inbounds i8, i8* %40, i64 %41
  %43 = bitcast i8* %42 to %"class.std::ctype"**
  %44 = load %"class.std::ctype"*, %"class.std::ctype"** %43, align 8, !tbaa !11
  %45 = icmp eq %"class.std::ctype"* %44, null
  br i1 %45, label %46, label %47

46:                                               ; preds = %30
  call void @_ZSt16__throw_bad_castv() #8
  unreachable

47:                                               ; preds = %30
  %48 = getelementptr inbounds %"class.std::ctype", %"class.std::ctype"* %44, i64 0, i32 8
  %49 = load i8, i8* %48, align 8, !tbaa !15
  %50 = icmp eq i8 %49, 0
  br i1 %50, label %54, label %51

51:                                               ; preds = %47
  %52 = getelementptr inbounds %"class.std::ctype", %"class.std::ctype"* %44, i64 0, i32 9, i64 10
  %53 = load i8, i8* %52, align 1, !tbaa !17
  br label %60

54:                                               ; preds = %47
  call void @_ZNKSt5ctypeIcE13_M_widen_initEv(%"class.std::ctype"* nonnull align 8 dereferenceable(570) %44)
  %55 = bitcast %"class.std::ctype"* %44 to i8 (%"class.std::ctype"*, i8)***
  %56 = load i8 (%"class.std::ctype"*, i8)**, i8 (%"class.std::ctype"*, i8)*** %55, align 8, !tbaa !9
  %57 = getelementptr inbounds i8 (%"class.std::ctype"*, i8)*, i8 (%"class.std::ctype"*, i8)** %56, i64 6
  %58 = load i8 (%"class.std::ctype"*, i8)*, i8 (%"class.std::ctype"*, i8)** %57, align 8
  %59 = call signext i8 %58(%"class.std::ctype"* nonnull align 8 dereferenceable(570) %44, i8 signext 10)
  br label %60

60:                                               ; preds = %51, %54
  %61 = phi i8 [ %53, %51 ], [ %59, %54 ]
  %62 = call nonnull align 8 dereferenceable(8) %"class.std::basic_ostream"* @_ZNSo3putEc(%"class.std::basic_ostream"* nonnull align 8 dereferenceable(8) %34, i8 signext %61)
  br label %140

63:                                               ; preds = %63, %28
  %64 = phi i32 [ %23, %28 ], [ %86, %63 ]
  %65 = phi i64 [ 3, %28 ], [ %88, %63 ]
  %66 = phi i64 [ %29, %28 ], [ %89, %63 ]
  %67 = add nsw i64 %65, -2
  %68 = getelementptr inbounds [25 x i32], [25 x i32]* %3, i64 0, i64 %67
  %69 = load i32, i32* %68, align 4, !tbaa !5
  %70 = add nsw i32 %69, %64
  %71 = getelementptr inbounds [25 x i32], [25 x i32]* %3, i64 0, i64 %65
  store i32 %70, i32* %71, align 4, !tbaa !5
  %72 = add nuw nsw i64 %65, 1
  %73 = add nsw i64 %65, -1
  %74 = getelementptr inbounds [25 x i32], [25 x i32]* %3, i64 0, i64 %73
  %75 = load i32, i32* %74, align 4, !tbaa !5
  %76 = add nsw i32 %75, %70
  %77 = getelementptr inbounds [25 x i32], [25 x i32]* %3, i64 0, i64 %72
  store i32 %76, i32* %77, align 4, !tbaa !5
  %78 = add nuw nsw i64 %65, 2
  %79 = getelementptr inbounds [25 x i32], [25 x i32]* %3, i64 0, i64 %65
  %80 = load i32, i32* %79, align 4, !tbaa !5
  %81 = add nsw i32 %80, %76
  %82 = getelementptr inbounds [25 x i32], [25 x i32]* %3, i64 0, i64 %78
  store i32 %81, i32* %82, align 4, !tbaa !5
  %83 = add nuw nsw i64 %65, 3
  %84 = getelementptr inbounds [25 x i32], [25 x i32]* %3, i64 0, i64 %72
  %85 = load i32, i32* %84, align 4, !tbaa !5
  %86 = add nsw i32 %85, %81
  %87 = getelementptr inbounds [25 x i32], [25 x i32]* %3, i64 0, i64 %83
  store i32 %86, i32* %87, align 4, !tbaa !5
  %88 = add nuw nsw i64 %65, 4
  %89 = add i64 %66, -4
  %90 = icmp eq i64 %89, 0
  br i1 %90, label %91, label %63, !llvm.loop !18

91:                                               ; preds = %63, %20
  %92 = phi i32 [ %23, %20 ], [ %86, %63 ]
  %93 = phi i64 [ 3, %20 ], [ %88, %63 ]
  %94 = icmp eq i64 %26, 0
  br i1 %94, label %107, label %95

95:                                               ; preds = %91, %95
  %96 = phi i32 [ %102, %95 ], [ %92, %91 ]
  %97 = phi i64 [ %104, %95 ], [ %93, %91 ]
  %98 = phi i64 [ %105, %95 ], [ %26, %91 ]
  %99 = add nsw i64 %97, -2
  %100 = getelementptr inbounds [25 x i32], [25 x i32]* %3, i64 0, i64 %99
  %101 = load i32, i32* %100, align 4, !tbaa !5
  %102 = add nsw i32 %101, %96
  %103 = getelementptr inbounds [25 x i32], [25 x i32]* %3, i64 0, i64 %97
  store i32 %102, i32* %103, align 4, !tbaa !5
  %104 = add nuw nsw i64 %97, 1
  %105 = add i64 %98, -1
  %106 = icmp eq i64 %105, 0
  br i1 %106, label %107, label %95, !llvm.loop !20

107:                                              ; preds = %91, %95, %18
  %108 = sext i32 %15 to i64
  %109 = getelementptr inbounds [25 x i32], [25 x i32]* %3, i64 0, i64 %108
  %110 = load i32, i32* %109, align 4, !tbaa !5
  %111 = call nonnull align 8 dereferenceable(8) %"class.std::basic_ostream"* @_ZNSolsEi(%"class.std::basic_ostream"* nonnull align 8 dereferenceable(8) @_ZSt4cout, i32 %110)
  %112 = bitcast %"class.std::basic_ostream"* %111 to i8**
  %113 = load i8*, i8** %112, align 8, !tbaa !9
  %114 = getelementptr i8, i8* %113, i64 -24
  %115 = bitcast i8* %114 to i64*
  %116 = load i64, i64* %115, align 8
  %117 = bitcast %"class.std::basic_ostream"* %111 to i8*
  %118 = add nsw i64 %116, 240
  %119 = getelementptr inbounds i8, i8* %117, i64 %118
  %120 = bitcast i8* %119 to %"class.std::ctype"**
  %121 = load %"class.std::ctype"*, %"class.std::ctype"** %120, align 8, !tbaa !11
  %122 = icmp eq %"class.std::ctype"* %121, null
  br i1 %122, label %123, label %124

123:                                              ; preds = %107
  call void @_ZSt16__throw_bad_castv() #8
  unreachable

124:                                              ; preds = %107
  %125 = getelementptr inbounds %"class.std::ctype", %"class.std::ctype"* %121, i64 0, i32 8
  %126 = load i8, i8* %125, align 8, !tbaa !15
  %127 = icmp eq i8 %126, 0
  br i1 %127, label %131, label %128

128:                                              ; preds = %124
  %129 = getelementptr inbounds %"class.std::ctype", %"class.std::ctype"* %121, i64 0, i32 9, i64 10
  %130 = load i8, i8* %129, align 1, !tbaa !17
  br label %137

131:                                              ; preds = %124
  call void @_ZNKSt5ctypeIcE13_M_widen_initEv(%"class.std::ctype"* nonnull align 8 dereferenceable(570) %121)
  %132 = bitcast %"class.std::ctype"* %121 to i8 (%"class.std::ctype"*, i8)***
  %133 = load i8 (%"class.std::ctype"*, i8)**, i8 (%"class.std::ctype"*, i8)*** %132, align 8, !tbaa !9
  %134 = getelementptr inbounds i8 (%"class.std::ctype"*, i8)*, i8 (%"class.std::ctype"*, i8)** %133, i64 6
  %135 = load i8 (%"class.std::ctype"*, i8)*, i8 (%"class.std::ctype"*, i8)** %134, align 8
  %136 = call signext i8 %135(%"class.std::ctype"* nonnull align 8 dereferenceable(570) %121, i8 signext 10)
  br label %137

137:                                              ; preds = %128, %131
  %138 = phi i8 [ %130, %128 ], [ %136, %131 ]
  %139 = call nonnull align 8 dereferenceable(8) %"class.std::basic_ostream"* @_ZNSo3putEc(%"class.std::basic_ostream"* nonnull align 8 dereferenceable(8) %111, i8 signext %138)
  br label %140

140:                                              ; preds = %60, %137
  %141 = phi %"class.std::basic_ostream"* [ %62, %60 ], [ %139, %137 ]
  %142 = call nonnull align 8 dereferenceable(8) %"class.std::basic_ostream"* @_ZNSo5flushEv(%"class.std::basic_ostream"* nonnull align 8 dereferenceable(8) %141)
  %143 = add nuw nsw i32 %13, 1
  %144 = load i32, i32* %2, align 4, !tbaa !5
  %145 = icmp slt i32 %13, %144
  br i1 %145, label %12, label %146, !llvm.loop !22

146:                                              ; preds = %140, %0
  call void @llvm.lifetime.end.p0i8(i64 100, i8* nonnull %6) #7
  call void @llvm.lifetime.end.p0i8(i64 4, i8* nonnull %5) #7
  call void @llvm.lifetime.end.p0i8(i64 4, i8* nonnull %4) #7
  ret i32 0
}

; Function Attrs: argmemonly mustprogress nofree nosync nounwind willreturn
declare void @llvm.lifetime.start.p0i8(i64 immarg, i8* nocapture) #4

declare nonnull align 8 dereferenceable(16) %"class.std::basic_istream"* @_ZNSirsERi(%"class.std::basic_istream"* nonnull align 8 dereferenceable(16), i32* nonnull align 4 dereferenceable(4)) local_unnamed_addr #0

declare nonnull align 8 dereferenceable(8) %"class.std::basic_ostream"* @_ZNSolsEi(%"class.std::basic_ostream"* nonnull align 8 dereferenceable(8), i32) local_unnamed_addr #0

; Function Attrs: argmemonly mustprogress nofree nosync nounwind willreturn
declare void @llvm.lifetime.end.p0i8(i64 immarg, i8* nocapture) #4

declare nonnull align 8 dereferenceable(8) %"class.std::basic_ostream"* @_ZNSo3putEc(%"class.std::basic_ostream"* nonnull align 8 dereferenceable(8), i8 signext) local_unnamed_addr #0

declare nonnull align 8 dereferenceable(8) %"class.std::basic_ostream"* @_ZNSo5flushEv(%"class.std::basic_ostream"* nonnull align 8 dereferenceable(8)) local_unnamed_addr #0

; Function Attrs: noreturn
declare void @_ZSt16__throw_bad_castv() local_unnamed_addr #5

declare void @_ZNKSt5ctypeIcE13_M_widen_initEv(%"class.std::ctype"* nonnull align 8 dereferenceable(570)) local_unnamed_addr #0

; Function Attrs: sspstrong uwtable
define internal void @_GLOBAL__sub_I_1424.cpp() #6 section ".text.startup" {
  tail call void @_ZNSt8ios_base4InitC1Ev(%"class.std::ios_base::Init"* nonnull align 1 dereferenceable(1) @_ZStL8__ioinit)
  %1 = tail call i32 @__cxa_atexit(void (i8*)* bitcast (void (%"class.std::ios_base::Init"*)* @_ZNSt8ios_base4InitD1Ev to void (i8*)*), i8* getelementptr inbounds (%"class.std::ios_base::Init", %"class.std::ios_base::Init"* @_ZStL8__ioinit, i64 0, i32 0), i8* nonnull @__dso_handle) #7
  ret void
}


!llvm.module.flags = !{!0, !1, !2, !3}
!llvm.ident = !{!4}

!0 = !{i32 1, !"wchar_size", i32 4}
!1 = !{i32 7, !"PIC Level", i32 2}
!2 = !{i32 7, !"PIE Level", i32 2}
!3 = !{i32 7, !"uwtable", i32 1}
!4 = !{!"clang version 13.0.0"}
!5 = !{!6, !6, i64 0}
!6 = !{!"int", !7, i64 0}
!7 = !{!"omnipotent char", !8, i64 0}
!8 = !{!"Simple C++ TBAA"}
!9 = !{!10, !10, i64 0}
!10 = !{!"vtable pointer", !8, i64 0}
!11 = !{!12, !13, i64 240}
!12 = !{!"_ZTSSt9basic_iosIcSt11char_traitsIcEE", !13, i64 216, !7, i64 224, !14, i64 225, !13, i64 232, !13, i64 240, !13, i64 248, !13, i64 256}
!13 = !{!"any pointer", !7, i64 0}
!14 = !{!"bool", !7, i64 0}
!15 = !{!16, !7, i64 56}
!16 = !{!"_ZTSSt5ctypeIcE", !13, i64 16, !14, i64 24, !13, i64 32, !13, i64 40, !13, i64 48, !7, i64 56, !7, i64 57, !7, i64 313, !7, i64 569}
!17 = !{!7, !7, i64 0}
!18 = distinct !{!18, !19}
!19 = !{!"llvm.loop.mustprogress"}
!20 = distinct !{!20, !21}
!21 = !{!"llvm.loop.unroll.disable"}
!22 = distinct !{!22, !19}
